; Function Attrs: mustprogress nounwind uwtable
define dso_local void @_ZN4llvm15DwarfExpression6addShrEj(ptr noundef nonnull align 8 dereferenceable(88) %0, i32 noundef %1) local_unnamed_addr #0 align 2 {
  %3 = icmp ult i32 %1, 32
  br i1 %3, label %4, label %9

4:                                                ; preds = %2
  %5 = trunc nuw i32 %1 to i8
  %6 = add nuw nsw i8 %5, 48
  %7 = load ptr, ptr %0, align 8
  %8 = load ptr, ptr %7, align 8
  tail call void %8(ptr noundef nonnull align 8 dereferenceable(88) %0, i8 noundef zeroext %6, ptr noundef null) #13
  br label %_ZN4llvm15DwarfExpression10emitConstuEm.exit

9:                                                ; preds = %2
  %10 = zext i32 %1 to i64
  %11 = load ptr, ptr %0, align 8
  %12 = load ptr, ptr %11, align 8
  tail call void %12(ptr noundef nonnull align 8 dereferenceable(88) %0, i8 noundef zeroext 16, ptr noundef null) #13
  %13 = load ptr, ptr %0, align 8
  %14 = getelementptr inbounds i8, ptr %13, i64 16
  %15 = load ptr, ptr %14, align 8
  tail call void %15(ptr noundef nonnull align 8 dereferenceable(88) %0, i64 noundef %10) #13
  br label %_ZN4llvm15DwarfExpression10emitConstuEm.exit

_ZN4llvm15DwarfExpression10emitConstuEm.exit:     ; preds = %4, %9
  %16 = load ptr, ptr %0, align 8
  %17 = load ptr, ptr %16, align 8
  tail call void %17(ptr noundef nonnull align 8 dereferenceable(88) %0, i8 noundef zeroext 37, ptr noundef null) #13
  ret void
}